target datalayout = "e-m:e-p270:32:32-p271:32:32-p272:64:64-i64:64-i128:128-f80:128-n8:16:32:64-S128"
target triple = "x86_64-pc-linux-gnu"

%"struct.duckdb_zstd::FASTCOVER_accel_t" = type { i32, i32 }
%"struct.duckdb_zstd::ZDICT_params_t" = type { i32, i32, i32 }
%"struct.duckdb_zstd::FASTCOVER_ctx_t" = type { ptr, ptr, ptr, i64, i64, i64, i64, ptr, i32, i32, %"struct.duckdb_zstd::FASTCOVER_accel_t" }
%"struct.duckdb_zstd::ZDICT_cover_params_t" = type { i32, i32, i32, i32, double, i32, i32, %"struct.duckdb_zstd::ZDICT_params_t" }
%"struct.duckdb_zstd::FASTCOVER_tryParameters_data_s" = type { ptr, ptr, i64, %"struct.duckdb_zstd::ZDICT_cover_params_t" }
%"struct.duckdb_zstd::COVER_dictSelection" = type { ptr, i64, i64 }

@_ZN11duckdb_zstdL14g_displayLevelE = internal global i32 0, align 4
@stderr = external global ptr, align 8
@.str.25 = private unnamed_addr constant [43 x i8] c"Failed to allocate buffers: out of memory\0A\00", align 1
@.str.26 = private unnamed_addr constant [29 x i8] c"Failed to select dictionary\0A\00", align 1

; Function Attrs: mustprogress uwtable
define internal void @_ZN11duckdb_zstdL23FASTCOVER_tryParametersEPv(ptr noundef %0) #0 {
  %2 = alloca ptr, align 8
  %3 = alloca ptr, align 8
  %4 = alloca ptr, align 8
  %5 = alloca %"struct.duckdb_zstd::ZDICT_cover_params_t", align 8
  %6 = alloca i64, align 8
  %7 = alloca i64, align 8
  %8 = alloca ptr, align 8
  %9 = alloca ptr, align 8
  %10 = alloca %"struct.duckdb_zstd::COVER_dictSelection", align 8
  %11 = alloca ptr, align 8
  %12 = alloca i64, align 8
  %13 = alloca %"struct.duckdb_zstd::ZDICT_cover_params_t", align 8
  %14 = alloca i32, align 4
  %15 = alloca %"struct.duckdb_zstd::COVER_dictSelection", align 8
  %16 = alloca %"struct.duckdb_zstd::ZDICT_cover_params_t", align 8
  %17 = alloca %"struct.duckdb_zstd::COVER_dictSelection", align 8
  %18 = alloca i32, align 4
  %19 = alloca %"struct.duckdb_zstd::ZDICT_cover_params_t", align 8
  %20 = alloca %"struct.duckdb_zstd::COVER_dictSelection", align 8
  %21 = alloca %"struct.duckdb_zstd::COVER_dictSelection", align 8
  store ptr %0, ptr %2, align 8, !tbaa !3
  call void @llvm.lifetime.start.p0(i64 8, ptr %3) #12
  %22 = load ptr, ptr %2, align 8, !tbaa !3
  store ptr %22, ptr %3, align 8, !tbaa !70
  call void @llvm.lifetime.start.p0(i64 8, ptr %4) #12
  %23 = load ptr, ptr %3, align 8, !tbaa !70
  %24 = getelementptr inbounds nuw %"struct.duckdb_zstd::FASTCOVER_tryParameters_data_s", ptr %23, i32 0, i32 0
  %25 = load ptr, ptr %24, align 8, !tbaa !72
  store ptr %25, ptr %4, align 8, !tbaa !3
  call void @llvm.lifetime.start.p0(i64 48, ptr %5) #12
  %26 = load ptr, ptr %3, align 8, !tbaa !70
  %27 = getelementptr inbounds nuw %"struct.duckdb_zstd::FASTCOVER_tryParameters_data_s", ptr %26, i32 0, i32 3
  call void @llvm.memcpy.p0.p0.i64(ptr align 8 %5, ptr align 8 %27, i64 48, i1 false), !tbaa.struct !24
  call void @llvm.lifetime.start.p0(i64 8, ptr %6) #12
  %28 = load ptr, ptr %3, align 8, !tbaa !70
  %29 = getelementptr inbounds nuw %"struct.duckdb_zstd::FASTCOVER_tryParameters_data_s", ptr %28, i32 0, i32 2
  %30 = load i64, ptr %29, align 8, !tbaa !76
  store i64 %30, ptr %6, align 8, !tbaa !7
  call void @llvm.lifetime.start.p0(i64 8, ptr %7) #12
  store i64 -1, ptr %7, align 8, !tbaa !7
  call void @llvm.lifetime.start.p0(i64 8, ptr %8) #12
  %31 = load ptr, ptr %4, align 8, !tbaa !3
  %32 = getelementptr inbounds nuw %"struct.duckdb_zstd::FASTCOVER_ctx_t", ptr %31, i32 0, i32 9
  %33 = load i32, ptr %32, align 4, !tbaa !55
  %34 = zext i32 %33 to i64
  %35 = shl i64 1, %34
  %36 = call noalias ptr @calloc(i64 noundef %35, i64 noundef 2) #13
  store ptr %36, ptr %8, align 8, !tbaa !34
  call void @llvm.lifetime.start.p0(i64 8, ptr %9) #12
  %37 = load i64, ptr %6, align 8, !tbaa !7
  %38 = call noalias ptr @malloc(i64 noundef %37) #14
  store ptr %38, ptr %9, align 8, !tbaa !13
  call void @llvm.lifetime.start.p0(i64 24, ptr %10) #12
  call void @_ZN11duckdb_zstd24COVER_dictSelectionErrorEm(ptr dead_on_unwind writable sret(%"struct.duckdb_zstd::COVER_dictSelection") align 8 %10, i64 noundef -1)
  call void @llvm.lifetime.start.p0(i64 8, ptr %11) #12
  %39 = load ptr, ptr %4, align 8, !tbaa !3
  %40 = getelementptr inbounds nuw %"struct.duckdb_zstd::FASTCOVER_ctx_t", ptr %39, i32 0, i32 9
  %41 = load i32, ptr %40, align 4, !tbaa !55
  %42 = zext i32 %41 to i64
  %43 = shl i64 1, %42
  %44 = mul i64 %43, 4
  %45 = call noalias ptr @malloc(i64 noundef %44) #14
  store ptr %45, ptr %11, align 8, !tbaa !59
  %46 = load ptr, ptr %8, align 8, !tbaa !34
  %47 = icmp ne ptr %46, null
  br i1 %47, label %48, label %54

48:                                               ; preds = %1
  %49 = load ptr, ptr %9, align 8, !tbaa !13
  %50 = icmp ne ptr %49, null
  br i1 %50, label %51, label %54

51:                                               ; preds = %48
  %52 = load ptr, ptr %11, align 8, !tbaa !59
  %53 = icmp ne ptr %52, null
  br i1 %53, label %63, label %54

54:                                               ; preds = %51, %48, %1
  %55 = load i32, ptr @_ZN11duckdb_zstdL14g_displayLevelE, align 4, !tbaa !11
  %56 = icmp sge i32 %55, 1
  br i1 %56, label %57, label %62

57:                                               ; preds = %54
  %58 = load ptr, ptr @stderr, align 8, !tbaa !25
  %59 = call i32 (ptr, ptr, ...) @fprintf(ptr noundef %58, ptr noundef @.str.25) #12
  %60 = load ptr, ptr @stderr, align 8, !tbaa !25
  %61 = call i32 @fflush(ptr noundef %60)
  br label %62

62:                                               ; preds = %57, %54
  br label %130

63:                                               ; preds = %51
  %64 = load ptr, ptr %11, align 8, !tbaa !59
  %65 = load ptr, ptr %4, align 8, !tbaa !3
  %66 = getelementptr inbounds nuw %"struct.duckdb_zstd::FASTCOVER_ctx_t", ptr %65, i32 0, i32 7
  %67 = load ptr, ptr %66, align 8, !tbaa !36
  %68 = load ptr, ptr %4, align 8, !tbaa !3
  %69 = getelementptr inbounds nuw %"struct.duckdb_zstd::FASTCOVER_ctx_t", ptr %68, i32 0, i32 9
  %70 = load i32, ptr %69, align 4, !tbaa !55
  %71 = zext i32 %70 to i64
  %72 = shl i64 1, %71
  %73 = mul i64 %72, 4
  call void @llvm.memcpy.p0.p0.i64(ptr align 4 %64, ptr align 4 %67, i64 %73, i1 false)
  call void @llvm.lifetime.start.p0(i64 8, ptr %12) #12
  %74 = load ptr, ptr %4, align 8, !tbaa !3
  %75 = load ptr, ptr %11, align 8, !tbaa !59
  %76 = load ptr, ptr %9, align 8, !tbaa !13
  %77 = load i64, ptr %6, align 8, !tbaa !7
  call void @llvm.memcpy.p0.p0.i64(ptr align 8 %13, ptr align 8 %5, i64 48, i1 false), !tbaa.struct !24
  %78 = load ptr, ptr %8, align 8, !tbaa !34
  %79 = call noundef i64 @_ZN11duckdb_zstdL25FASTCOVER_buildDictionaryEPKNS_15FASTCOVER_ctx_tEPjPvmNS_20ZDICT_cover_params_tEPt(ptr noundef %74, ptr noundef %75, ptr noundef %76, i64 noundef %77, ptr noundef byval(%"struct.duckdb_zstd::ZDICT_cover_params_t") align 8 %13, ptr noundef %78)
  store i64 %79, ptr %12, align 8, !tbaa !7
  call void @llvm.lifetime.start.p0(i64 4, ptr %14) #12
  %80 = load ptr, ptr %4, align 8, !tbaa !3
  %81 = getelementptr inbounds nuw %"struct.duckdb_zstd::FASTCOVER_ctx_t", ptr %80, i32 0, i32 4
  %82 = load i64, ptr %81, align 8, !tbaa !37
  %83 = load ptr, ptr %4, align 8, !tbaa !3
  %84 = getelementptr inbounds nuw %"struct.duckdb_zstd::FASTCOVER_ctx_t", ptr %83, i32 0, i32 10
  %85 = getelementptr inbounds nuw %"struct.duckdb_zstd::FASTCOVER_accel_t", ptr %84, i32 0, i32 0
  %86 = load i32, ptr %85, align 8, !tbaa !38
  %87 = zext i32 %86 to i64
  %88 = mul i64 %82, %87
  %89 = udiv i64 %88, 100
  %90 = trunc i64 %89 to i32
  store i32 %90, ptr %14, align 4, !tbaa !11
  call void @llvm.lifetime.start.p0(i64 24, ptr %15) #12
  %91 = load ptr, ptr %9, align 8, !tbaa !13
  %92 = load i64, ptr %12, align 8, !tbaa !7
  %93 = getelementptr inbounds nuw i8, ptr %91, i64 %92
  %94 = load i64, ptr %6, align 8, !tbaa !7
  %95 = load i64, ptr %6, align 8, !tbaa !7
  %96 = load i64, ptr %12, align 8, !tbaa !7
  %97 = sub i64 %95, %96
  %98 = load ptr, ptr %4, align 8, !tbaa !3
  %99 = getelementptr inbounds nuw %"struct.duckdb_zstd::FASTCOVER_ctx_t", ptr %98, i32 0, i32 0
  %100 = load ptr, ptr %99, align 8, !tbaa !50
  %101 = load ptr, ptr %4, align 8, !tbaa !3
  %102 = getelementptr inbounds nuw %"struct.duckdb_zstd::FASTCOVER_ctx_t", ptr %101, i32 0, i32 2
  %103 = load ptr, ptr %102, align 8, !tbaa !51
  %104 = load i32, ptr %14, align 4, !tbaa !11
  %105 = load ptr, ptr %4, align 8, !tbaa !3
  %106 = getelementptr inbounds nuw %"struct.duckdb_zstd::FASTCOVER_ctx_t", ptr %105, i32 0, i32 4
  %107 = load i64, ptr %106, align 8, !tbaa !37
  %108 = load ptr, ptr %4, align 8, !tbaa !3
  %109 = getelementptr inbounds nuw %"struct.duckdb_zstd::FASTCOVER_ctx_t", ptr %108, i32 0, i32 3
  %110 = load i64, ptr %109, align 8, !tbaa !52
  call void @llvm.memcpy.p0.p0.i64(ptr align 8 %16, ptr align 8 %5, i64 48, i1 false), !tbaa.struct !24
  %111 = load ptr, ptr %4, align 8, !tbaa !3
  %112 = getelementptr inbounds nuw %"struct.duckdb_zstd::FASTCOVER_ctx_t", ptr %111, i32 0, i32 1
  %113 = load ptr, ptr %112, align 8, !tbaa !56
  %114 = load i64, ptr %7, align 8, !tbaa !7
  call void @_ZN11duckdb_zstd16COVER_selectDictEPhmmPKhPKmjmmNS_20ZDICT_cover_params_tEPmm(ptr dead_on_unwind writable sret(%"struct.duckdb_zstd::COVER_dictSelection") align 8 %15, ptr noundef %93, i64 noundef %94, i64 noundef %97, ptr noundef %100, ptr noundef %103, i32 noundef %104, i64 noundef %107, i64 noundef %110, ptr noundef byval(%"struct.duckdb_zstd::ZDICT_cover_params_t") align 8 %16, ptr noundef %113, i64 noundef %114)
  call void @llvm.memcpy.p0.p0.i64(ptr align 8 %10, ptr align 8 %15, i64 24, i1 false), !tbaa.struct !89
  call void @llvm.lifetime.end.p0(i64 24, ptr %15) #12
  call void @llvm.memcpy.p0.p0.i64(ptr align 8 %17, ptr align 8 %10, i64 24, i1 false), !tbaa.struct !89
  %115 = call noundef i32 @_ZN11duckdb_zstd26COVER_dictSelectionIsErrorENS_19COVER_dictSelectionE(ptr noundef byval(%"struct.duckdb_zstd::COVER_dictSelection") align 8 %17)
  %116 = icmp ne i32 %115, 0
  br i1 %116, label %117, label %126

117:                                              ; preds = %63
  %118 = load i32, ptr @_ZN11duckdb_zstdL14g_displayLevelE, align 4, !tbaa !11
  %119 = icmp sge i32 %118, 1
  br i1 %119, label %120, label %125

120:                                              ; preds = %117
  %121 = load ptr, ptr @stderr, align 8, !tbaa !25
  %122 = call i32 (ptr, ptr, ...) @fprintf(ptr noundef %121, ptr noundef @.str.26) #12
  %123 = load ptr, ptr @stderr, align 8, !tbaa !25
  %124 = call i32 @fflush(ptr noundef %123)
  br label %125

125:                                              ; preds = %120, %117
  store i32 2, ptr %18, align 4
  br label %127

126:                                              ; preds = %63
  store i32 0, ptr %18, align 4
  br label %127

127:                                              ; preds = %125, %126
  call void @llvm.lifetime.end.p0(i64 4, ptr %14) #12
  call void @llvm.lifetime.end.p0(i64 8, ptr %12) #12
  %128 = load i32, ptr %18, align 4
  switch i32 %128, label %138 [
    i32 0, label %129
    i32 2, label %130
  ]

129:                                              ; preds = %127
  br label %130

130:                                              ; preds = %129, %127, %62
  %131 = load ptr, ptr %9, align 8, !tbaa !13
  call void @free(ptr noundef %131) #12
  %132 = load ptr, ptr %3, align 8, !tbaa !70
  %133 = getelementptr inbounds nuw %"struct.duckdb_zstd::FASTCOVER_tryParameters_data_s", ptr %132, i32 0, i32 1
  %134 = load ptr, ptr %133, align 8, !tbaa !75
  call void @llvm.memcpy.p0.p0.i64(ptr align 8 %19, ptr align 8 %5, i64 48, i1 false), !tbaa.struct !24
  call void @llvm.memcpy.p0.p0.i64(ptr align 8 %20, ptr align 8 %10, i64 24, i1 false), !tbaa.struct !89
  call void @_ZN11duckdb_zstd17COVER_best_finishEPNS_12COVER_best_sENS_20ZDICT_cover_params_tENS_19COVER_dictSelectionE(ptr noundef %134, ptr noundef byval(%"struct.duckdb_zstd::ZDICT_cover_params_t") align 8 %19, ptr noundef byval(%"struct.duckdb_zstd::COVER_dictSelection") align 8 %20)
  %135 = load ptr, ptr %3, align 8, !tbaa !70
  call void @free(ptr noundef %135) #12
  %136 = load ptr, ptr %8, align 8, !tbaa !34
  call void @free(ptr noundef %136) #12
  call void @llvm.memcpy.p0.p0.i64(ptr align 8 %21, ptr align 8 %10, i64 24, i1 false), !tbaa.struct !89
  call void @_ZN11duckdb_zstd23COVER_dictSelectionFreeENS_19COVER_dictSelectionE(ptr noundef byval(%"struct.duckdb_zstd::COVER_dictSelection") align 8 %21)
  %137 = load ptr, ptr %11, align 8, !tbaa !59
  call void @free(ptr noundef %137) #12
  call void @llvm.lifetime.end.p0(i64 8, ptr %11) #12
  call void @llvm.lifetime.end.p0(i64 24, ptr %10) #12
  call void @llvm.lifetime.end.p0(i64 8, ptr %9) #12
  call void @llvm.lifetime.end.p0(i64 8, ptr %8) #12
  call void @llvm.lifetime.end.p0(i64 8, ptr %7) #12
  call void @llvm.lifetime.end.p0(i64 8, ptr %6) #12
  call void @llvm.lifetime.end.p0(i64 48, ptr %5) #12
  call void @llvm.lifetime.end.p0(i64 8, ptr %4) #12
  call void @llvm.lifetime.end.p0(i64 8, ptr %3) #12
  ret void

138:                                              ; preds = %127
  unreachable
}