; Function Attrs: mustprogress uwtable
define internal void @_ZN11duckdb_zstdL23FASTCOVER_tryParametersEPv(ptr noundef captures(none) %0) #0 {
  %2 = alloca %"struct.duckdb_zstd::ZDICT_cover_params_t", align 8
  %3 = alloca %"struct.duckdb_zstd::COVER_dictSelection", align 8
  %4 = alloca %"struct.duckdb_zstd::COVER_dictSelection", align 8
  %5 = load ptr, ptr %0, align 8, !tbaa !54
  %6 = getelementptr inbounds nuw i8, ptr %0, i64 24
  call void @llvm.memcpy.p0.p0.i64(ptr noundef nonnull align 8 dereferenceable(48) %2, ptr noundef nonnull align 8 dereferenceable(48) %6, i64 48, i1 false), !tbaa.struct !72
  %7 = getelementptr inbounds nuw i8, ptr %0, i64 16
  %8 = load i64, ptr %7, align 8, !tbaa !58
  %9 = getelementptr inbounds nuw i8, ptr %5, i64 68
  %10 = load i32, ptr %9, align 4, !tbaa !34
  %11 = zext nneg i32 %10 to i64
  %12 = shl nuw i64 1, %11
  %13 = tail call noalias ptr @calloc(i64 noundef %12, i64 noundef 2) #15
  %14 = tail call noalias ptr @malloc(i64 noundef %8) #16
  call void @llvm.lifetime.start.p0(i64 24, ptr nonnull %3) #12
  call void @_ZN11duckdb_zstd24COVER_dictSelectionErrorEm(ptr dead_on_unwind nonnull writable sret(%"struct.duckdb_zstd::COVER_dictSelection") align 8 %3, i64 noundef -1)
  %15 = load i32, ptr %9, align 4, !tbaa !34
  %16 = zext nneg i32 %15 to i64
  %17 = shl i64 4, %16
  %18 = call noalias ptr @malloc(i64 noundef %17) #16
  %19 = icmp ne ptr %13, null
  %20 = icmp ne ptr %14, null
  %or.cond = and i1 %19, %20
  %21 = icmp ne ptr %18, null
  %or.cond3 = and i1 %or.cond, %21
  br i1 %or.cond3, label %28, label %22

22:                                               ; preds = %1
  %23 = load i32, ptr @_ZN11duckdb_zstdL14g_displayLevelE, align 4, !tbaa !10
  %24 = icmp sgt i32 %23, 0
  br i1 %24, label %25, label %57

25:                                               ; preds = %22
  %26 = load ptr, ptr @stderr, align 8, !tbaa !13
  %27 = call i64 @fwrite(ptr nonnull @.str.25, i64 42, i64 1, ptr %26) #13
  br label %.sink.split

28:                                               ; preds = %1
  %29 = getelementptr inbounds nuw i8, ptr %5, i64 56
  %30 = load ptr, ptr %29, align 8, !tbaa !23
  call void @llvm.memcpy.p0.p0.i64(ptr nonnull align 4 %18, ptr align 4 %30, i64 %17, i1 false)
  %31 = call fastcc noundef i64 @_ZN11duckdb_zstdL25FASTCOVER_buildDictionaryEPKNS_15FASTCOVER_ctx_tEPjPvmNS_20ZDICT_cover_params_tEPt(ptr noundef nonnull %5, ptr noundef nonnull %18, ptr noundef nonnull %14, i64 noundef %8, ptr noundef nonnull byval(%"struct.duckdb_zstd::ZDICT_cover_params_t") align 8 %2, ptr noundef nonnull %13)
  %32 = getelementptr inbounds nuw i8, ptr %5, i64 32
  %33 = load i64, ptr %32, align 8, !tbaa !26
  %34 = getelementptr inbounds nuw i8, ptr %5, i64 72
  %35 = load i32, ptr %34, align 8, !tbaa !27
  %36 = zext i32 %35 to i64
  %37 = mul i64 %33, %36
  %38 = udiv i64 %37, 100
  %39 = trunc i64 %38 to i32
  call void @llvm.lifetime.start.p0(i64 24, ptr nonnull %4) #12
  %40 = getelementptr inbounds nuw i8, ptr %14, i64 %31
  %41 = sub i64 %8, %31
  %42 = load ptr, ptr %5, align 8, !tbaa !29
  %43 = getelementptr inbounds nuw i8, ptr %5, i64 16
  %44 = load ptr, ptr %43, align 8, !tbaa !30
  %45 = getelementptr inbounds nuw i8, ptr %5, i64 24
  %46 = load i64, ptr %45, align 8, !tbaa !31
  %47 = getelementptr inbounds nuw i8, ptr %5, i64 8
  %48 = load ptr, ptr %47, align 8, !tbaa !28
  call void @_ZN11duckdb_zstd16COVER_selectDictEPhmmPKhPKmjmmNS_20ZDICT_cover_params_tEPmm(ptr dead_on_unwind nonnull writable sret(%"struct.duckdb_zstd::COVER_dictSelection") align 8 %4, ptr noundef nonnull %40, i64 noundef %8, i64 noundef %41, ptr noundef %42, ptr noundef %44, i32 noundef %39, i64 noundef %33, i64 noundef %46, ptr noundef nonnull byval(%"struct.duckdb_zstd::ZDICT_cover_params_t") align 8 %2, ptr noundef %48, i64 noundef -1)
  call void @llvm.memcpy.p0.p0.i64(ptr noundef nonnull align 8 dereferenceable(24) %3, ptr noundef nonnull align 8 dereferenceable(24) %4, i64 24, i1 false), !tbaa.struct !73
  call void @llvm.lifetime.end.p0(i64 24, ptr nonnull %4) #12
  %49 = call noundef i32 @_ZN11duckdb_zstd26COVER_dictSelectionIsErrorENS_19COVER_dictSelectionE(ptr noundef nonnull byval(%"struct.duckdb_zstd::COVER_dictSelection") align 8 %3)
  %.not = icmp ne i32 %49, 0
  %50 = load i32, ptr @_ZN11duckdb_zstdL14g_displayLevelE, align 4
  %51 = icmp sgt i32 %50, 0
  %or.cond42 = select i1 %.not, i1 %51, i1 false
  br i1 %or.cond42, label %52, label %57

52:                                               ; preds = %28
  %53 = load ptr, ptr @stderr, align 8, !tbaa !13
  %54 = call i64 @fwrite(ptr nonnull @.str.26, i64 28, i64 1, ptr %53) #13
  br label %.sink.split

.sink.split:                                      ; preds = %25, %52
  %55 = load ptr, ptr @stderr, align 8, !tbaa !13
  %56 = call i32 @fflush(ptr noundef %55)
  br label %57

57:                                               ; preds = %.sink.split, %28, %22
  call void @free(ptr noundef %14) #12
  %58 = getelementptr inbounds nuw i8, ptr %0, i64 8
  %59 = load ptr, ptr %58, align 8, !tbaa !57
  call void @_ZN11duckdb_zstd17COVER_best_finishEPNS_12COVER_best_sENS_20ZDICT_cover_params_tENS_19COVER_dictSelectionE(ptr noundef %59, ptr noundef nonnull byval(%"struct.duckdb_zstd::ZDICT_cover_params_t") align 8 %2, ptr noundef nonnull byval(%"struct.duckdb_zstd::COVER_dictSelection") align 8 %3)
  call void @free(ptr noundef nonnull %0) #12
  call void @free(ptr noundef %13) #12
  call void @_ZN11duckdb_zstd23COVER_dictSelectionFreeENS_19COVER_dictSelectionE(ptr noundef nonnull byval(%"struct.duckdb_zstd::COVER_dictSelection") align 8 %3)
  call void @free(ptr noundef %18) #12
  call void @llvm.lifetime.end.p0(i64 24, ptr nonnull %3) #12
  ret void
}